target datalayout = "e-m:e-p270:32:32-p271:32:32-p272:64:64-i64:64-i128:128-f80:128-n8:16:32:64-S128"
target triple = "x86_64-pc-linux-gnu"

%class.LibRaw = type { ptr, %struct.libraw_data_t, ptr, %struct.libraw_internal_data_t, [2048 x %struct.decode], ptr, ptr, [10 x %struct.tiff_ifd_t], %class.libraw_memmgr, %struct.libraw_callbacks_t, { i64, i64 }, { i64, i64 }, { i64, i64 }, ptr, ptr, ptr, i64, ptr, ptr, ptr, ptr }
%struct.libraw_data_t = type { ptr, %struct.libraw_image_sizes_t, %struct.libraw_iparams_t, %struct.libraw_lensinfo_t, %struct.libraw_makernotes_t, %struct.libraw_shootinginfo_t, %struct.libraw_output_params_t, %struct.libraw_raw_unpack_params_t, i32, i32, %struct.libraw_colordata_t, %struct.libraw_imgother_t, %struct.libraw_thumbnail_t, %struct.libraw_thumbnail_list_t, %struct.libraw_rawdata_t, ptr }
%struct.libraw_image_sizes_t = type { i16, i16, i16, i16, i16, i16, i16, i16, i32, double, i32, [8 x [4 x i32]], i16, [2 x %struct.libraw_raw_inset_crop_t] }
%struct.libraw_raw_inset_crop_t = type { i16, i16, i16, i16 }
%struct.libraw_iparams_t = type { [4 x i8], [64 x i8], [64 x i8], [64 x i8], [64 x i8], [64 x i8], i32, i32, i32, i32, i32, i32, [6 x [6 x i8]], [6 x [6 x i8]], [5 x i8], i32, ptr }
%struct.libraw_lensinfo_t = type { float, float, float, float, float, [128 x i8], [128 x i8], [128 x i8], [128 x i8], i16, %struct.libraw_nikonlens_t, %struct.libraw_dnglens_t, %struct.libraw_makernotes_lens_t }
%struct.libraw_nikonlens_t = type { float, i8, i8, i8, i8 }
%struct.libraw_dnglens_t = type { float, float, float, float }
%struct.libraw_makernotes_lens_t = type { i64, [128 x i8], i16, i16, i64, i16, i16, [64 x i8], i16, [16 x i8], [16 x i8], float, float, float, float, float, float, float, float, float, float, float, float, float, float, float, i64, [128 x i8], i64, [128 x i8], i64, [128 x i8], i16, float }
%struct.libraw_makernotes_t = type { %struct.libraw_canon_makernotes_t, %struct.libraw_nikon_makernotes_t, %struct.libraw_hasselblad_makernotes_t, %struct.libraw_fuji_info_t, %struct.libraw_olympus_makernotes_t, %struct.libraw_sony_info_t, %struct.libraw_kodak_makernotes_t, %struct.libraw_panasonic_makernotes_t, %struct.libraw_pentax_makernotes_t, %struct.libraw_p1_makernotes_t, %struct.libraw_ricoh_makernotes_t, %struct.libraw_samsung_makernotes_t, %struct.libraw_metadata_common_t }
%struct.libraw_canon_makernotes_t = type { i32, i32, i32, i32, [4 x i32], i32, [4 x i32], i16, i16, i8, i16, i16, i16, i16, i16, i16, i16, i16, i16, i16, i16, i16, i16, i32, float, i16, i16, i16, i32, i16, i32, i32, i16, i32, %struct.libraw_area_t, %struct.libraw_area_t, %struct.libraw_area_t, %struct.libraw_area_t, %struct.libraw_area_t, [2 x i16] }
%struct.libraw_area_t = type { i16, i16, i16, i16 }
%struct.libraw_nikon_makernotes_t = type { double, i16, i16, [7 x i8], i8, i8, [13 x i8], [20 x i8], [4 x i8], [4 x i8], [4 x i8], i8, i8, i8, i8, i8, [2 x i8], i8, i8, i8, i8, i8, [4 x i8], [4 x i8], i8, i16, i32, i32, i32, i32, [4 x double], i8, i8, i8, i32, i32, i32, i8, [4 x i16], i16, %struct.libraw_sensor_highspeed_crop_t, i16, i16, i16, i32, [20 x i8], [20 x i8], i32, i16, double, double, double }
%struct.libraw_sensor_highspeed_crop_t = type { i16, i16, i16, i16 }
%struct.libraw_hasselblad_makernotes_t = type { i32, double, [8 x i8], [64 x i8], [64 x i8], i32, i32, i32, i32, [32 x i8], [64 x i8], i32, [2 x i32], [2 x i32], [4 x [3 x double]] }
%struct.libraw_fuji_info_t = type { float, i16, i16, i16, i16, i16, i16, i16, i16, [33 x i8], [33 x i8], float, i16, i16, [2 x i16], i16, i32, i32, i16, [3 x i16], i16, i16, i16, i16, i16, i32, i16, [13 x i8], [5 x i8], [5 x i8], i32, i16, i32, i16, [9 x i16], [32 x i32], i32, i32, i32, [2 x float], i32 }
%struct.libraw_olympus_makernotes_t = type { [6 x i8], i16, [2 x i32], [5 x i16], i16, [2 x i16], i16, i16, [64 x i32], [5 x double], i16, i8, [3 x i16], [3 x i32], i16, i16, i16, i16, double, [4 x i16], [2 x i32], i8, i32, i16, i16 }
%struct.libraw_sony_info_t = type { i16, i8, i8, i32, i8, i32, i8, i8, i16, [2 x i16], i8, i8, i16, [10 x i8], i8, i8, [4 x i16], i16, i8, i8, i8, i16, i32, i16, [2 x i16], i16, i16, i16, i16, i16, i16, i16, i32, float, i16, i32, i32, i16, [20 x i8], i32, i16, i32, i8, i8, i16, i16, i16, i16, i16, i16, i16, i16, i16, i32, i16, [16 x i8], float }
%struct.libraw_kodak_makernotes_t = type { i16, i16, i16, i16, i16, i16, [3 x [3 x float]], [3 x [3 x float]], [3 x [3 x float]], [3 x [3 x float]], [3 x [3 x float]], [3 x [3 x float]], i16, i16, i16, i16, float, float }
%struct.libraw_panasonic_makernotes_t = type { i16, i16, [8 x float], i32, float, [3 x i32], i16, i16, i32, i32 }
%struct.libraw_pentax_makernotes_t = type { [4 x i8], [2 x i16], [2 x i16], i16, i32, i32, i16, i16, i8, i8, i16 }
%struct.libraw_p1_makernotes_t = type { [64 x i8], [64 x i8], [256 x i8], [64 x i8] }
%struct.libraw_ricoh_makernotes_t = type { i16, [2 x i32], [2 x i32], i16, i32, i32, i32, i32, i16, i16, i16, i16, i16, i16, double, double }
%struct.libraw_samsung_makernotes_t = type { [4 x i32], [4 x i32], [2 x i32], [11 x i32], double, i32, [32 x i8] }
%struct.libraw_metadata_common_t = type { float, float, float, float, float, float, float, float, float, float, float, float, float, float, float, float, i16, [128 x i8], float, [4 x %struct.libraw_afinfo_item_t], i32 }
%struct.libraw_afinfo_item_t = type { i32, i16, i32, i32, ptr }
%struct.libraw_shootinginfo_t = type { i16, i16, i16, i16, i16, i16, i16, [64 x i8], [64 x i8] }
%struct.libraw_output_params_t = type { [4 x i32], [4 x i32], [4 x double], [6 x double], [4 x float], float, float, i32, i32, i32, i32, i32, i32, i32, ptr, ptr, ptr, ptr, i32, i32, i32, i32, i32, i32, [4 x i32], i32, i32, float, float, i32, i32, i32, i32, i32, i32, i32, i32, float, float, i32, i32 }
%struct.libraw_raw_unpack_params_t = type { i32, i32, i32, i32, i32, i32, i32, float, [5 x i8], ptr }
%struct.libraw_colordata_t = type { [65536 x i16], [4104 x i32], i32, i32, i32, [4 x i64], float, float, [8 x [8 x i16]], [4 x float], [4 x float], [3 x [4 x float]], [3 x [4 x float]], [3 x [4 x float]], [4 x [3 x float]], %struct.ph1_t, float, float, [64 x i8], [64 x i8], [64 x i8], [64 x i8], [17 x i8], [64 x i8], ptr, i32, [8 x i32], [2 x %struct.libraw_dng_color_t], %struct.libraw_dng_levels_t, [256 x [4 x i32]], [64 x [5 x float]], i32, [2 x %struct.libraw_P1_color_t], i32, i32 }
%struct.ph1_t = type { i32, i32, i32, i32, i32, i32, i32, i32, float }
%struct.libraw_dng_color_t = type { i32, i16, [4 x [4 x float]], [4 x [3 x float]], [3 x [4 x float]] }
%struct.libraw_dng_levels_t = type { i32, [4104 x i32], i32, [4104 x float], float, [4 x i32], [4 x i16], [4 x float], i32, [4 x float], [4 x float], float, float }
%struct.libraw_P1_color_t = type { [9 x float] }
%struct.libraw_imgother_t = type { float, float, float, float, i64, i32, [32 x i32], %struct.libraw_gps_info_t, [512 x i8], [64 x i8], [4 x float] }
%struct.libraw_gps_info_t = type { [3 x float], [3 x float], [3 x float], float, i8, i8, i8, i8, i8 }
%struct.libraw_thumbnail_t = type { i32, i16, i16, i32, i32, ptr }
%struct.libraw_thumbnail_list_t = type { i32, [8 x %struct.libraw_thumbnail_item_t] }
%struct.libraw_thumbnail_item_t = type { i32, i16, i16, i16, i32, i32, i64 }
%struct.libraw_rawdata_t = type { ptr, ptr, ptr, ptr, ptr, ptr, ptr, ptr, ptr, %struct.libraw_iparams_t, %struct.libraw_image_sizes_t, %struct.libraw_internal_output_params_t, %struct.libraw_colordata_t }
%struct.libraw_internal_output_params_t = type { i32, i32, i32, i16, i16 }
%struct.libraw_internal_data_t = type { %struct.internal_data_t, %struct.libraw_internal_output_params_t, %struct.output_data_t, %struct.identify_data_t, %struct.unpacker_data_t }
%struct.internal_data_t = type { ptr, ptr, i32, ptr, i64, i64, [4 x i32] }
%struct.output_data_t = type { ptr, ptr }
%struct.identify_data_t = type { i32, i64, i64, i32, i32, i32 }
%struct.unpacker_data_t = type { i16, [4 x i16], [3 x i16], i32, i64, i64, i64, i64, i64, i64, i32, i32, i32, i32, i32, i32, i32, i32, i32, i32, i32, i32, i32, i32, i32, i32, i32, i64, i32, i32, i32, i32, i32, i32, i32, i32, i32, %struct.pana8_tags_t, [16 x %struct.crx_data_header_t], i32, i32, i16, i16, i32, i32, i32, i32, i32, i32, i32, [20 x i32], i16 }
%struct.pana8_tags_t = type { [6 x i32], [6 x i16], i16, [4 x i16], [17 x i16], [17 x i16], [17 x i16], i16, i16, [5 x i64], [5 x i16], [5 x i32], [5 x i16], [5 x i16] }
%struct.crx_data_header_t = type { i32, i32, i32, i32, i32, i32, i32, i32, i32, i32, i32, i32, i32, i32, i32, i64, i32, ptr, i32, i32, i32, ptr, i32, ptr }
%struct.decode = type { [2 x ptr], i32 }
%struct.tiff_ifd_t = type { i32, i32, i32, i32, i32, i32, i32, i32, i32, i32, i32, i32, i32, i32, i32, ptr, i32, ptr, i32, i32, i32, i32, i32, i32, i32, float, i64, i64, i32, [2 x %struct.libraw_dng_color_t], %struct.libraw_dng_levels_t, i32 }
%class.libraw_memmgr = type <{ ptr, i32, [4 x i8] }>
%struct.libraw_callbacks_t = type { ptr, ptr, ptr, ptr, ptr, ptr, ptr, ptr, ptr, ptr, ptr, ptr, ptr, ptr, ptr, ptr, ptr }

; Function Attrs: mustprogress uwtable
define noundef i32 @_ZN6LibRaw22adjust_sizes_info_onlyEv(ptr noundef nonnull align 8 dereferenceable(767680) %0) #3 align 2 {
  %2 = alloca i32, align 4
  %3 = alloca ptr, align 8
  %4 = alloca i16, align 2
  store ptr %0, ptr %3, align 8, !tbaa !18
  %5 = load ptr, ptr %3, align 8
  br label %6

6:                                                ; preds = %1
  %7 = getelementptr inbounds nuw %class.LibRaw, ptr %5, i32 0, i32 1
  %8 = getelementptr inbounds nuw %struct.libraw_data_t, ptr %7, i32 0, i32 8
  %9 = load i32, ptr %8, align 8, !tbaa !115
  %10 = and i32 %9, 268435455
  %11 = icmp ult i32 %10, 2
  br i1 %11, label %12, label %13

12:                                               ; preds = %6
  store i32 -4, ptr %2, align 4
  br label %164

13:                                               ; preds = %6
  br label %14

14:                                               ; preds = %13
  call void @_ZN6LibRaw15raw2image_startEv(ptr noundef nonnull align 8 dereferenceable(767680) %5)
  %15 = getelementptr inbounds nuw %class.LibRaw, ptr %5, i32 0, i32 1
  %16 = getelementptr inbounds nuw %struct.libraw_data_t, ptr %15, i32 0, i32 6
  %17 = getelementptr inbounds nuw %struct.libraw_output_params_t, ptr %16, i32 0, i32 30
  %18 = load i32, ptr %17, align 4, !tbaa !118
  %19 = icmp ne i32 %18, 0
  br i1 %19, label %20, label %127

20:                                               ; preds = %14
  %21 = getelementptr inbounds nuw %class.LibRaw, ptr %5, i32 0, i32 3
  %22 = getelementptr inbounds nuw %struct.libraw_internal_data_t, ptr %21, i32 0, i32 1
  %23 = getelementptr inbounds nuw %struct.libraw_internal_output_params_t, ptr %22, i32 0, i32 4
  %24 = load i16, ptr %23, align 2, !tbaa !119
  %25 = icmp ne i16 %24, 0
  br i1 %25, label %26, label %79

26:                                               ; preds = %20
  %27 = getelementptr inbounds nuw %class.LibRaw, ptr %5, i32 0, i32 3
  %28 = getelementptr inbounds nuw %struct.libraw_internal_data_t, ptr %27, i32 0, i32 1
  %29 = getelementptr inbounds nuw %struct.libraw_internal_output_params_t, ptr %28, i32 0, i32 4
  %30 = load i16, ptr %29, align 2, !tbaa !119
  %31 = zext i16 %30 to i32
  %32 = sub nsw i32 %31, 1
  %33 = getelementptr inbounds nuw %class.LibRaw, ptr %5, i32 0, i32 3
  %34 = getelementptr inbounds nuw %struct.libraw_internal_data_t, ptr %33, i32 0, i32 1
  %35 = getelementptr inbounds nuw %struct.libraw_internal_output_params_t, ptr %34, i32 0, i32 3
  %36 = load i16, ptr %35, align 4, !tbaa !120
  %37 = zext i16 %36 to i32
  %38 = add nsw i32 %32, %37
  %39 = getelementptr inbounds nuw %class.LibRaw, ptr %5, i32 0, i32 3
  %40 = getelementptr inbounds nuw %struct.libraw_internal_data_t, ptr %39, i32 0, i32 1
  %41 = getelementptr inbounds nuw %struct.libraw_internal_output_params_t, ptr %40, i32 0, i32 3
  %42 = load i16, ptr %41, align 4, !tbaa !120
  %43 = zext i16 %42 to i32
  %44 = ashr i32 %38, %43
  %45 = trunc i32 %44 to i16
  %46 = getelementptr inbounds nuw %class.LibRaw, ptr %5, i32 0, i32 3
  %47 = getelementptr inbounds nuw %struct.libraw_internal_data_t, ptr %46, i32 0, i32 1
  %48 = getelementptr inbounds nuw %struct.libraw_internal_output_params_t, ptr %47, i32 0, i32 4
  store i16 %45, ptr %48, align 2, !tbaa !119
  %49 = getelementptr inbounds nuw %class.LibRaw, ptr %5, i32 0, i32 3
  %50 = getelementptr inbounds nuw %struct.libraw_internal_data_t, ptr %49, i32 0, i32 1
  %51 = getelementptr inbounds nuw %struct.libraw_internal_output_params_t, ptr %50, i32 0, i32 4
  %52 = load i16, ptr %51, align 2, !tbaa !119
  %53 = zext i16 %52 to i32
  %54 = sitofp i32 %53 to double
  %55 = call reassoc nsz arcp contract afn double @llvm.sqrt.f64(double 5.000000e-01)
  %56 = fdiv reassoc nsz arcp contract afn double %54, %55
  %57 = fptoui double %56 to i16
  %58 = getelementptr inbounds nuw %class.LibRaw, ptr %5, i32 0, i32 1
  %59 = getelementptr inbounds nuw %struct.libraw_data_t, ptr %58, i32 0, i32 1
  %60 = getelementptr inbounds nuw %struct.libraw_image_sizes_t, ptr %59, i32 0, i32 7
  store i16 %57, ptr %60, align 2, !tbaa !121
  %61 = getelementptr inbounds nuw %class.LibRaw, ptr %5, i32 0, i32 1
  %62 = getelementptr inbounds nuw %struct.libraw_data_t, ptr %61, i32 0, i32 1
  %63 = getelementptr inbounds nuw %struct.libraw_image_sizes_t, ptr %62, i32 0, i32 6
  %64 = load i16, ptr %63, align 4, !tbaa !122
  %65 = zext i16 %64 to i32
  %66 = getelementptr inbounds nuw %class.LibRaw, ptr %5, i32 0, i32 3
  %67 = getelementptr inbounds nuw %struct.libraw_internal_data_t, ptr %66, i32 0, i32 1
  %68 = getelementptr inbounds nuw %struct.libraw_internal_output_params_t, ptr %67, i32 0, i32 4
  %69 = load i16, ptr %68, align 2, !tbaa !119
  %70 = zext i16 %69 to i32
  %71 = sub nsw i32 %65, %70
  %72 = sitofp i32 %71 to double
  %73 = call reassoc nsz arcp contract afn double @llvm.sqrt.f64(double 5.000000e-01)
  %74 = fdiv reassoc nsz arcp contract afn double %72, %73
  %75 = fptoui double %74 to i16
  %76 = getelementptr inbounds nuw %class.LibRaw, ptr %5, i32 0, i32 1
  %77 = getelementptr inbounds nuw %struct.libraw_data_t, ptr %76, i32 0, i32 1
  %78 = getelementptr inbounds nuw %struct.libraw_image_sizes_t, ptr %77, i32 0, i32 6
  store i16 %75, ptr %78, align 4, !tbaa !122
  br label %126

79:                                               ; preds = %20
  %80 = getelementptr inbounds nuw %class.LibRaw, ptr %5, i32 0, i32 1
  %81 = getelementptr inbounds nuw %struct.libraw_data_t, ptr %80, i32 0, i32 1
  %82 = getelementptr inbounds nuw %struct.libraw_image_sizes_t, ptr %81, i32 0, i32 9
  %83 = load double, ptr %82, align 8, !tbaa !123
  %84 = fcmp reassoc nsz arcp contract afn olt double %83, 0x3FEFD70A3D70A3D7
  br i1 %84, label %85, label %102

85:                                               ; preds = %79
  %86 = getelementptr inbounds nuw %class.LibRaw, ptr %5, i32 0, i32 1
  %87 = getelementptr inbounds nuw %struct.libraw_data_t, ptr %86, i32 0, i32 1
  %88 = getelementptr inbounds nuw %struct.libraw_image_sizes_t, ptr %87, i32 0, i32 6
  %89 = load i16, ptr %88, align 4, !tbaa !122
  %90 = zext i16 %89 to i32
  %91 = sitofp i32 %90 to double
  %92 = getelementptr inbounds nuw %class.LibRaw, ptr %5, i32 0, i32 1
  %93 = getelementptr inbounds nuw %struct.libraw_data_t, ptr %92, i32 0, i32 1
  %94 = getelementptr inbounds nuw %struct.libraw_image_sizes_t, ptr %93, i32 0, i32 9
  %95 = load double, ptr %94, align 8, !tbaa !123
  %96 = fdiv reassoc nsz arcp contract afn double %91, %95
  %97 = fadd reassoc nsz arcp contract afn double %96, 5.000000e-01
  %98 = fptoui double %97 to i16
  %99 = getelementptr inbounds nuw %class.LibRaw, ptr %5, i32 0, i32 1
  %100 = getelementptr inbounds nuw %struct.libraw_data_t, ptr %99, i32 0, i32 1
  %101 = getelementptr inbounds nuw %struct.libraw_image_sizes_t, ptr %100, i32 0, i32 6
  store i16 %98, ptr %101, align 4, !tbaa !122
  br label %102

102:                                              ; preds = %85, %79
  %103 = getelementptr inbounds nuw %class.LibRaw, ptr %5, i32 0, i32 1
  %104 = getelementptr inbounds nuw %struct.libraw_data_t, ptr %103, i32 0, i32 1
  %105 = getelementptr inbounds nuw %struct.libraw_image_sizes_t, ptr %104, i32 0, i32 9
  %106 = load double, ptr %105, align 8, !tbaa !123
  %107 = fcmp reassoc nsz arcp contract afn ogt double %106, 1.005000e+00
  br i1 %107, label %108, label %125

108:                                              ; preds = %102
  %109 = getelementptr inbounds nuw %class.LibRaw, ptr %5, i32 0, i32 1
  %110 = getelementptr inbounds nuw %struct.libraw_data_t, ptr %109, i32 0, i32 1
  %111 = getelementptr inbounds nuw %struct.libraw_image_sizes_t, ptr %110, i32 0, i32 7
  %112 = load i16, ptr %111, align 2, !tbaa !121
  %113 = zext i16 %112 to i32
  %114 = sitofp i32 %113 to double
  %115 = getelementptr inbounds nuw %class.LibRaw, ptr %5, i32 0, i32 1
  %116 = getelementptr inbounds nuw %struct.libraw_data_t, ptr %115, i32 0, i32 1
  %117 = getelementptr inbounds nuw %struct.libraw_image_sizes_t, ptr %116, i32 0, i32 9
  %118 = load double, ptr %117, align 8, !tbaa !123
  %119 = fmul reassoc nsz arcp contract afn double %114, %118
  %120 = fadd reassoc nsz arcp contract afn double %119, 5.000000e-01
  %121 = fptoui double %120 to i16
  %122 = getelementptr inbounds nuw %class.LibRaw, ptr %5, i32 0, i32 1
  %123 = getelementptr inbounds nuw %struct.libraw_data_t, ptr %122, i32 0, i32 1
  %124 = getelementptr inbounds nuw %struct.libraw_image_sizes_t, ptr %123, i32 0, i32 7
  store i16 %121, ptr %124, align 2, !tbaa !121
  br label %125

125:                                              ; preds = %108, %102
  br label %126

126:                                              ; preds = %125, %26
  br label %127

127:                                              ; preds = %126, %14
  br label %128

128:                                              ; preds = %127
  %129 = getelementptr inbounds nuw %class.LibRaw, ptr %5, i32 0, i32 1
  %130 = getelementptr inbounds nuw %struct.libraw_data_t, ptr %129, i32 0, i32 8
  %131 = load i32, ptr %130, align 8, !tbaa !115
  %132 = or i32 %131, 32768
  store i32 %132, ptr %130, align 8, !tbaa !115
  br label %133

133:                                              ; preds = %128
  %134 = getelementptr inbounds nuw %class.LibRaw, ptr %5, i32 0, i32 1
  %135 = getelementptr inbounds nuw %struct.libraw_data_t, ptr %134, i32 0, i32 1
  %136 = getelementptr inbounds nuw %struct.libraw_image_sizes_t, ptr %135, i32 0, i32 10
  %137 = load i32, ptr %136, align 8, !tbaa !124
  %138 = and i32 %137, 4
  %139 = icmp ne i32 %138, 0
  br i1 %139, label %140, label %163

140:                                              ; preds = %133
  call void @llvm.lifetime.start.p0(i64 2, ptr %4) #18
  %141 = getelementptr inbounds nuw %class.LibRaw, ptr %5, i32 0, i32 1
  %142 = getelementptr inbounds nuw %struct.libraw_data_t, ptr %141, i32 0, i32 1
  %143 = getelementptr inbounds nuw %struct.libraw_image_sizes_t, ptr %142, i32 0, i32 6
  %144 = load i16, ptr %143, align 4, !tbaa !122
  store i16 %144, ptr %4, align 2, !tbaa !112
  %145 = getelementptr inbounds nuw %class.LibRaw, ptr %5, i32 0, i32 1
  %146 = getelementptr inbounds nuw %struct.libraw_data_t, ptr %145, i32 0, i32 1
  %147 = getelementptr inbounds nuw %struct.libraw_image_sizes_t, ptr %146, i32 0, i32 7
  %148 = load i16, ptr %147, align 2, !tbaa !121
  %149 = getelementptr inbounds nuw %class.LibRaw, ptr %5, i32 0, i32 1
  %150 = getelementptr inbounds nuw %struct.libraw_data_t, ptr %149, i32 0, i32 1
  %151 = getelementptr inbounds nuw %struct.libraw_image_sizes_t, ptr %150, i32 0, i32 6
  store i16 %148, ptr %151, align 4, !tbaa !122
  %152 = load i16, ptr %4, align 2, !tbaa !112
  %153 = getelementptr inbounds nuw %class.LibRaw, ptr %5, i32 0, i32 1
  %154 = getelementptr inbounds nuw %struct.libraw_data_t, ptr %153, i32 0, i32 1
  %155 = getelementptr inbounds nuw %struct.libraw_image_sizes_t, ptr %154, i32 0, i32 7
  store i16 %152, ptr %155, align 2, !tbaa !121
  br label %156

156:                                              ; preds = %140
  %157 = getelementptr inbounds nuw %class.LibRaw, ptr %5, i32 0, i32 1
  %158 = getelementptr inbounds nuw %struct.libraw_data_t, ptr %157, i32 0, i32 8
  %159 = load i32, ptr %158, align 8, !tbaa !115
  %160 = or i32 %159, 65536
  store i32 %160, ptr %158, align 8, !tbaa !115
  br label %161

161:                                              ; preds = %156
  br label %162

162:                                              ; preds = %161
  call void @llvm.lifetime.end.p0(i64 2, ptr %4) #18
  br label %163

163:                                              ; preds = %162, %133
  store i32 0, ptr %2, align 4
  br label %164

164:                                              ; preds = %163, %12
  %165 = load i32, ptr %2, align 4
  ret i32 %165
}