; Function Attrs: mustprogress uwtable
define noundef range(i32 -4, 1) i32 @_ZN6LibRaw22adjust_sizes_info_onlyEv(ptr noundef nonnull align 8 dereferenceable(767680) %0) local_unnamed_addr #4 align 2 {
  %2 = getelementptr inbounds nuw i8, ptr %0, i64 5496
  %3 = load i32, ptr %2, align 8, !tbaa !109
  %4 = and i32 %3, 268435454
  %5 = icmp eq i32 %4, 0
  br i1 %5, label %65, label %6

6:                                                ; preds = %1
  tail call void @_ZN6LibRaw15raw2image_startEv(ptr noundef nonnull align 8 dereferenceable(767680) %0)
  %7 = getelementptr inbounds nuw i8, ptr %0, i64 5404
  %8 = load i32, ptr %7, align 4, !tbaa !110
  %.not = icmp eq i32 %8, 0
  br i1 %.not, label %53, label %9

9:                                                ; preds = %6
  %10 = getelementptr inbounds nuw i8, ptr %0, i64 381494
  %11 = load i16, ptr %10, align 2, !tbaa !111
  %.not5 = icmp eq i16 %11, 0
  br i1 %.not5, label %33, label %12

12:                                               ; preds = %9
  %13 = zext i16 %11 to i32
  %14 = add nsw i32 %13, -1
  %15 = getelementptr inbounds nuw i8, ptr %0, i64 381492
  %16 = load i16, ptr %15, align 4, !tbaa !112
  %17 = zext i16 %16 to i32
  %18 = add nuw nsw i32 %14, %17
  %19 = lshr i32 %18, %17
  %20 = trunc i32 %19 to i16
  store i16 %20, ptr %10, align 2, !tbaa !111
  %21 = and i32 %19, 65535
  %22 = uitofp nneg i32 %21 to double
  %23 = fmul reassoc nsz arcp contract afn double %22, 0x3FF6A09E667F3BCC
  %24 = fptoui double %23 to i16
  %25 = getelementptr inbounds nuw i8, ptr %0, i64 30
  store i16 %24, ptr %25, align 2, !tbaa !113
  %26 = getelementptr inbounds nuw i8, ptr %0, i64 28
  %27 = load i16, ptr %26, align 4, !tbaa !114
  %28 = zext i16 %27 to i32
  %29 = sub nsw i32 %28, %21
  %30 = sitofp i32 %29 to double
  %31 = fmul reassoc nsz arcp contract afn double %30, 0x3FF6A09E667F3BCC
  %32 = fptoui double %31 to i16
  store i16 %32, ptr %26, align 4, !tbaa !114
  br label %53

33:                                               ; preds = %9
  %34 = getelementptr inbounds nuw i8, ptr %0, i64 40
  %35 = load double, ptr %34, align 8, !tbaa !115
  %36 = fcmp reassoc nsz arcp contract afn olt double %35, 0x3FEFD70A3D70A3D7
  br i1 %36, label %37, label %44

37:                                               ; preds = %33
  %38 = getelementptr inbounds nuw i8, ptr %0, i64 28
  %39 = load i16, ptr %38, align 4, !tbaa !114
  %40 = uitofp i16 %39 to double
  %41 = fdiv reassoc nsz arcp contract afn double %40, %35
  %42 = fadd reassoc nsz arcp contract afn double %41, 5.000000e-01
  %43 = fptoui double %42 to i16
  store i16 %43, ptr %38, align 4, !tbaa !114
  br label %44

44:                                               ; preds = %37, %33
  %45 = fcmp reassoc nsz arcp contract afn ogt double %35, 1.005000e+00
  br i1 %45, label %46, label %53

46:                                               ; preds = %44
  %47 = getelementptr inbounds nuw i8, ptr %0, i64 30
  %48 = load i16, ptr %47, align 2, !tbaa !113
  %49 = uitofp i16 %48 to double
  %50 = fmul reassoc nsz arcp contract afn double %35, %49
  %51 = fadd reassoc nsz arcp contract afn double %50, 5.000000e-01
  %52 = fptoui double %51 to i16
  store i16 %52, ptr %47, align 2, !tbaa !113
  br label %53

53:                                               ; preds = %6, %44, %46, %12
  %54 = load i32, ptr %2, align 8, !tbaa !109
  %55 = or i32 %54, 32768
  store i32 %55, ptr %2, align 8, !tbaa !109
  %56 = getelementptr inbounds nuw i8, ptr %0, i64 48
  %57 = load i32, ptr %56, align 8, !tbaa !116
  %58 = and i32 %57, 4
  %.not6 = icmp eq i32 %58, 0
  br i1 %.not6, label %65, label %59

59:                                               ; preds = %53
  %60 = getelementptr inbounds nuw i8, ptr %0, i64 28
  %61 = load i16, ptr %60, align 4, !tbaa !114
  %62 = getelementptr inbounds nuw i8, ptr %0, i64 30
  %63 = load i16, ptr %62, align 2, !tbaa !113
  store i16 %63, ptr %60, align 4, !tbaa !114
  store i16 %61, ptr %62, align 2, !tbaa !113
  %64 = or i32 %54, 98304
  store i32 %64, ptr %2, align 8, !tbaa !109
  br label %65

65:                                               ; preds = %53, %59, %1
  %.0 = phi i32 [ -4, %1 ], [ 0, %59 ], [ 0, %53 ]
  ret i32 %.0
}